target datalayout = "e-m:e-p270:32:32-p271:32:32-p272:64:64-i64:64-i128:128-f80:128-n8:16:32:64-S128"
target triple = "x86_64-pc-linux-gnu"

; Function Attrs: mustprogress nounwind uwtable
define internal noundef ptr @_ZN6google24glog_internal_namespace_L6GetHexEPKcS2_Pm(ptr noundef %0, ptr noundef %1, ptr noundef %2) #0 {
  %4 = alloca ptr, align 8
  %5 = alloca ptr, align 8
  %6 = alloca ptr, align 8
  %7 = alloca ptr, align 8
  %8 = alloca i32, align 4
  %9 = alloca i32, align 4
  store ptr %0, ptr %4, align 8, !tbaa !9
  store ptr %1, ptr %5, align 8, !tbaa !9
  store ptr %2, ptr %6, align 8, !tbaa !38
  %10 = load ptr, ptr %6, align 8, !tbaa !38
  store i64 0, ptr %10, align 8, !tbaa !11
  call void @llvm.lifetime.start.p0(i64 8, ptr %7) #14
  %11 = load ptr, ptr %4, align 8, !tbaa !9
  store ptr %11, ptr %7, align 8, !tbaa !9
  br label %12

12:                                               ; preds = %61, %3
  %13 = load ptr, ptr %7, align 8, !tbaa !9
  %14 = load ptr, ptr %5, align 8, !tbaa !9
  %15 = icmp ult ptr %13, %14
  br i1 %15, label %16, label %64

16:                                               ; preds = %12
  call void @llvm.lifetime.start.p0(i64 4, ptr %8) #14
  %17 = load ptr, ptr %7, align 8, !tbaa !9
  %18 = load i8, ptr %17, align 1, !tbaa !32
  %19 = sext i8 %18 to i32
  store i32 %19, ptr %8, align 4, !tbaa !7
  %20 = load i32, ptr %8, align 4, !tbaa !7
  %21 = icmp sge i32 %20, 48
  br i1 %21, label %22, label %25

22:                                               ; preds = %16
  %23 = load i32, ptr %8, align 4, !tbaa !7
  %24 = icmp sle i32 %23, 57
  br i1 %24, label %37, label %25

25:                                               ; preds = %22, %16
  %26 = load i32, ptr %8, align 4, !tbaa !7
  %27 = icmp sge i32 %26, 65
  br i1 %27, label %28, label %31

28:                                               ; preds = %25
  %29 = load i32, ptr %8, align 4, !tbaa !7
  %30 = icmp sle i32 %29, 70
  br i1 %30, label %37, label %31

31:                                               ; preds = %28, %25
  %32 = load i32, ptr %8, align 4, !tbaa !7
  %33 = icmp sge i32 %32, 97
  br i1 %33, label %34, label %56

34:                                               ; preds = %31
  %35 = load i32, ptr %8, align 4, !tbaa !7
  %36 = icmp sle i32 %35, 102
  br i1 %36, label %37, label %56

37:                                               ; preds = %34, %28, %22
  %38 = load ptr, ptr %6, align 8, !tbaa !38
  %39 = load i64, ptr %38, align 8, !tbaa !11
  %40 = shl i64 %39, 4
  %41 = load i32, ptr %8, align 4, !tbaa !7
  %42 = icmp slt i32 %41, 65
  br i1 %42, label %43, label %47

43:                                               ; preds = %37
  %44 = load i32, ptr %8, align 4, !tbaa !7
  %45 = sub nsw i32 %44, 48
  %46 = sext i32 %45 to i64
  br label %52

47:                                               ; preds = %37
  %48 = load i32, ptr %8, align 4, !tbaa !7
  %49 = and i32 %48, 15
  %50 = add i32 %49, 9
  %51 = zext i32 %50 to i64
  br label %52

52:                                               ; preds = %47, %43
  %53 = phi i64 [ %46, %43 ], [ %51, %47 ]
  %54 = or i64 %40, %53
  %55 = load ptr, ptr %6, align 8, !tbaa !38
  store i64 %54, ptr %55, align 8, !tbaa !11
  br label %57

56:                                               ; preds = %34, %31
  store i32 2, ptr %9, align 4
  br label %58

57:                                               ; preds = %52
  store i32 0, ptr %9, align 4
  br label %58

58:                                               ; preds = %57, %56
  call void @llvm.lifetime.end.p0(i64 4, ptr %8) #14
  %59 = load i32, ptr %9, align 4
  switch i32 %59, label %73 [
    i32 0, label %60
    i32 2, label %64
  ]

60:                                               ; preds = %58
  br label %61

61:                                               ; preds = %60
  %62 = load ptr, ptr %7, align 8, !tbaa !9
  %63 = getelementptr inbounds nuw i8, ptr %62, i32 1
  store ptr %63, ptr %7, align 8, !tbaa !9
  br label %12, !llvm.loop !72

64:                                               ; preds = %58, %12
  %65 = load ptr, ptr %7, align 8, !tbaa !9
  %66 = load ptr, ptr %5, align 8, !tbaa !9
  %67 = icmp ule ptr %65, %66
  br i1 %67, label %68, label %69

68:                                               ; preds = %64
  br label %71

69:                                               ; preds = %64
  call void @abort() #16
  unreachable

70:                                               ; No predecessors!
  br label %71

71:                                               ; preds = %70, %68
  %72 = load ptr, ptr %7, align 8, !tbaa !9
  store i32 1, ptr %9, align 4
  call void @llvm.lifetime.end.p0(i64 8, ptr %7) #14
  ret ptr %72

73:                                               ; preds = %58
  unreachable
}