; Function Attrs: mustprogress nofree nounwind uwtable
define internal fastcc noundef ptr @_ZN6google24glog_internal_namespace_L6GetHexEPKcS2_Pm(ptr noundef readonly captures(address, ret: address, provenance) %0, ptr noundef readnone captures(address) %1, ptr noundef nonnull writeonly captures(none) initializes((0, 8)) %2) unnamed_addr #14 {
  store i64 0, ptr %2, align 8, !tbaa !22
  %4 = icmp ult ptr %0, %1
  br i1 %4, label %.lr.ph.preheader, label %switch.early.test._crit_edge

.lr.ph.preheader:                                 ; preds = %3
  %5 = ptrtoint ptr %1 to i64
  %6 = ptrtoint ptr %0 to i64
  %7 = sub i64 %5, %6
  %scevgep = getelementptr i8, ptr %0, i64 %7
  br label %.lr.ph

.lr.ph:                                           ; preds = %.lr.ph.preheader, %12
  %8 = phi i64 [ %21, %12 ], [ 0, %.lr.ph.preheader ]
  %.02532 = phi ptr [ %22, %12 ], [ %0, %.lr.ph.preheader ]
  %9 = load i8, ptr %.02532, align 1, !tbaa !25
  %.fr31 = freeze i8 %9
  %10 = sext i8 %.fr31 to i32
  %11 = add i8 %.fr31, -48
  %or.cond = icmp ult i8 %11, 10
  br i1 %or.cond, label %12, label %switch.early.test

switch.early.test:                                ; preds = %.lr.ph
  switch i8 %.fr31, label %switch.early.test._crit_edge [
    i8 102, label %12
    i8 101, label %12
    i8 100, label %12
    i8 99, label %12
    i8 98, label %12
    i8 97, label %12
    i8 70, label %12
    i8 69, label %12
    i8 68, label %12
    i8 67, label %12
    i8 66, label %12
    i8 65, label %12
  ]

12:                                               ; preds = %.lr.ph, %switch.early.test, %switch.early.test, %switch.early.test, %switch.early.test, %switch.early.test, %switch.early.test, %switch.early.test, %switch.early.test, %switch.early.test, %switch.early.test, %switch.early.test, %switch.early.test
  %13 = shl i64 %8, 4
  %14 = icmp samesign ult i8 %.fr31, 65
  %15 = add nsw i32 %10, -48
  %16 = sext i32 %15 to i64
  %17 = and i32 %10, 15
  %18 = add nuw nsw i32 %17, 9
  %19 = zext nneg i32 %18 to i64
  %20 = select i1 %14, i64 %16, i64 %19
  %21 = or i64 %13, %20
  store i64 %21, ptr %2, align 8, !tbaa !22
  %22 = getelementptr inbounds nuw i8, ptr %.02532, i64 1
  %exitcond.not = icmp eq ptr %22, %1
  br i1 %exitcond.not, label %switch.early.test._crit_edge, label %.lr.ph, !llvm.loop !31

switch.early.test._crit_edge:                     ; preds = %12, %switch.early.test, %3
  %.025.lcssa = phi ptr [ %0, %3 ], [ %.02532, %switch.early.test ], [ %scevgep, %12 ]
  %.not = icmp ugt ptr %.025.lcssa, %1
  br i1 %.not, label %23, label %24

23:                                               ; preds = %switch.early.test._crit_edge
  tail call void @abort() #21
  unreachable

24:                                               ; preds = %switch.early.test._crit_edge
  ret ptr %.025.lcssa
}